; Function Attrs: nounwind uwtable
define dso_local i32 @getinternalerrposition() local_unnamed_addr #3 {
  %1 = load i32, ptr @errordata_stack_depth, align 4
  %2 = icmp slt i32 %1, 0
  br i1 %2, label %3, label %6

3:                                                ; preds = %0
  store i32 -1, ptr @errordata_stack_depth, align 4
  %4 = tail call zeroext i1 @errstart_cold(i32 noundef 21, ptr noundef null) #33
  tail call void @llvm.assume(i1 %4)
  %5 = tail call i32 (ptr, ...) @errmsg_internal(ptr noundef nonnull @.str.1)
  tail call void @errfinish(ptr noundef nonnull @.str.2, i32 noundef 1617, ptr noundef nonnull @__func__.getinternalerrposition)
  unreachable

6:                                                ; preds = %0
  %7 = zext nneg i32 %1 to i64
  %8 = getelementptr inbounds nuw [5 x %struct.ErrorData], ptr @errordata, i64 0, i64 %7, i32 24
  %9 = load i32, ptr %8, align 4
  ret i32 %9
}